target datalayout = "e-m:e-p270:32:32-p271:32:32-p272:64:64-i64:64-i128:128-f80:128-n8:16:32:64-S128"
target triple = "x86_64-pc-linux-gnu"

@showprogress = internal global i8 0, align 1
@verbose = internal global i32 0, align 4
@stderr = external global ptr, align 8
@totaldone = internal global i64 0, align 8
@totalsize_kb = internal global i64 0, align 8
@tablespacecount = internal global i32 0, align 4
@progress_filename = internal global ptr null, align 8
@last_progress_report = internal global i64 0, align 8
@.str.273 = private unnamed_addr constant [4 x i8] c"%lu\00", align 1
@.str.274 = private unnamed_addr constant [40 x i8] c"%*s/%s kB (100%%), %d/%d tablespace %*s\00", align 1
@.str.275 = private unnamed_addr constant [41 x i8] c"%*s/%s kB (100%%), %d/%d tablespaces %*s\00", align 1
@.str.276 = private unnamed_addr constant [1 x i8] zeroinitializer, align 1
@.str.277 = private unnamed_addr constant [46 x i8] c"%*s/%s kB (%d%%), %d/%d tablespace (%s%-*.*s)\00", align 1
@.str.278 = private unnamed_addr constant [47 x i8] c"%*s/%s kB (%d%%), %d/%d tablespaces (%s%-*.*s)\00", align 1
@.str.279 = private unnamed_addr constant [4 x i8] c"...\00", align 1
@.str.280 = private unnamed_addr constant [35 x i8] c"%*s/%s kB (%d%%), %d/%d tablespace\00", align 1
@.str.281 = private unnamed_addr constant [36 x i8] c"%*s/%s kB (%d%%), %d/%d tablespaces\00", align 1

; Function Attrs: nounwind uwtable
define internal void @progress_report(i32 noundef %0, i1 noundef zeroext %1, i1 noundef zeroext %2) #0 {
  %4 = alloca i32, align 4
  %5 = alloca i8, align 1
  %6 = alloca i8, align 1
  %7 = alloca i32, align 4
  %8 = alloca [32 x i8], align 16
  %9 = alloca [32 x i8], align 16
  %10 = alloca i64, align 8
  %11 = alloca i32, align 4
  %12 = alloca i8, align 1
  store i32 %0, ptr %4, align 4
  %13 = zext i1 %1 to i8
  store i8 %13, ptr %5, align 1
  %14 = zext i1 %2 to i8
  store i8 %14, ptr %6, align 1
  call void @llvm.lifetime.start.p0(i64 4, ptr %7) #12
  call void @llvm.lifetime.start.p0(i64 32, ptr %8) #12
  call void @llvm.lifetime.start.p0(i64 32, ptr %9) #12
  call void @llvm.lifetime.start.p0(i64 8, ptr %10) #12
  %15 = load i8, ptr @showprogress, align 1, !range !6, !noundef !7
  %16 = trunc i8 %15 to i1
  br i1 %16, label %18, label %17

17:                                               ; preds = %3
  store i32 1, ptr %11, align 4
  br label %149

18:                                               ; preds = %3
  %19 = call i64 @time(ptr noundef null) #12
  store i64 %19, ptr %10, align 8
  %20 = load i64, ptr %10, align 8
  %21 = load i64, ptr @last_progress_report, align 8
  %22 = icmp eq i64 %20, %21
  br i1 %22, label %23, label %30

23:                                               ; preds = %18
  %24 = load i8, ptr %5, align 1, !range !6, !noundef !7
  %25 = trunc i8 %24 to i1
  br i1 %25, label %30, label %26

26:                                               ; preds = %23
  %27 = load i8, ptr %6, align 1, !range !6, !noundef !7
  %28 = trunc i8 %27 to i1
  br i1 %28, label %30, label %29

29:                                               ; preds = %26
  store i32 1, ptr %11, align 4
  br label %149

30:                                               ; preds = %26, %23, %18
  %31 = load i64, ptr %10, align 8
  store i64 %31, ptr @last_progress_report, align 8
  %32 = load i64, ptr @totalsize_kb, align 8
  %33 = icmp ne i64 %32, 0
  br i1 %33, label %34, label %41

34:                                               ; preds = %30
  %35 = load i64, ptr @totaldone, align 8
  %36 = udiv i64 %35, 1024
  %37 = mul i64 %36, 100
  %38 = load i64, ptr @totalsize_kb, align 8
  %39 = udiv i64 %37, %38
  %40 = trunc i64 %39 to i32
  br label %42

41:                                               ; preds = %30
  br label %42

42:                                               ; preds = %41, %34
  %43 = phi i32 [ %40, %34 ], [ 0, %41 ]
  store i32 %43, ptr %7, align 4
  %44 = load i32, ptr %7, align 4
  %45 = icmp sgt i32 %44, 100
  br i1 %45, label %46, label %47

46:                                               ; preds = %42
  store i32 100, ptr %7, align 4
  br label %47

47:                                               ; preds = %46, %42
  %48 = load i64, ptr @totaldone, align 8
  %49 = udiv i64 %48, 1024
  %50 = load i64, ptr @totalsize_kb, align 8
  %51 = icmp ugt i64 %49, %50
  br i1 %51, label %52, label %55

52:                                               ; preds = %47
  %53 = load i64, ptr @totaldone, align 8
  %54 = udiv i64 %53, 1024
  store i64 %54, ptr @totalsize_kb, align 8
  br label %55

55:                                               ; preds = %52, %47
  %56 = getelementptr inbounds [32 x i8], ptr %8, i64 0, i64 0
  %57 = load i64, ptr @totaldone, align 8
  %58 = udiv i64 %57, 1024
  %59 = call i32 (ptr, i64, ptr, ...) @pg_snprintf(ptr noundef %56, i64 noundef 32, ptr noundef @.str.273, i64 noundef %58)
  %60 = getelementptr inbounds [32 x i8], ptr %9, i64 0, i64 0
  %61 = load i64, ptr @totalsize_kb, align 8
  %62 = call i32 (ptr, i64, ptr, ...) @pg_snprintf(ptr noundef %60, i64 noundef 32, ptr noundef @.str.273, i64 noundef %61)
  %63 = load i32, ptr @verbose, align 4
  %64 = icmp ne i32 %63, 0
  br i1 %64, label %65, label %122

65:                                               ; preds = %55
  %66 = load ptr, ptr @progress_filename, align 8
  %67 = icmp ne ptr %66, null
  br i1 %67, label %81, label %68

68:                                               ; preds = %65
  %69 = load ptr, ptr @stderr, align 8
  %70 = load i32, ptr @tablespacecount, align 4
  %71 = icmp eq i32 %70, 1
  %72 = select i1 %71, ptr @.str.274, ptr @.str.275
  %73 = getelementptr inbounds [32 x i8], ptr %9, i64 0, i64 0
  %74 = call i64 @strlen(ptr noundef %73) #13
  %75 = trunc i64 %74 to i32
  %76 = getelementptr inbounds [32 x i8], ptr %8, i64 0, i64 0
  %77 = getelementptr inbounds [32 x i8], ptr %9, i64 0, i64 0
  %78 = load i32, ptr %4, align 4
  %79 = load i32, ptr @tablespacecount, align 4
  %80 = call i32 (ptr, ptr, ...) @pg_fprintf(ptr noundef %69, ptr noundef %72, i32 noundef %75, ptr noundef %76, ptr noundef %77, i32 noundef %78, i32 noundef %79, i32 noundef 40, ptr noundef @.str.276)
  br label %121

81:                                               ; preds = %65
  call void @llvm.lifetime.start.p0(i64 1, ptr %12) #12
  %82 = load ptr, ptr @progress_filename, align 8
  %83 = call i64 @strlen(ptr noundef %82) #13
  %84 = icmp ugt i64 %83, 35
  %85 = zext i1 %84 to i8
  store i8 %85, ptr %12, align 1
  %86 = load ptr, ptr @stderr, align 8
  %87 = load i32, ptr @tablespacecount, align 4
  %88 = icmp eq i32 %87, 1
  %89 = select i1 %88, ptr @.str.277, ptr @.str.278
  %90 = getelementptr inbounds [32 x i8], ptr %9, i64 0, i64 0
  %91 = call i64 @strlen(ptr noundef %90) #13
  %92 = trunc i64 %91 to i32
  %93 = getelementptr inbounds [32 x i8], ptr %8, i64 0, i64 0
  %94 = getelementptr inbounds [32 x i8], ptr %9, i64 0, i64 0
  %95 = load i32, ptr %7, align 4
  %96 = load i32, ptr %4, align 4
  %97 = load i32, ptr @tablespacecount, align 4
  %98 = load i8, ptr %12, align 1, !range !6, !noundef !7
  %99 = trunc i8 %98 to i1
  %100 = select i1 %99, ptr @.str.279, ptr @.str.276
  %101 = load i8, ptr %12, align 1, !range !6, !noundef !7
  %102 = trunc i8 %101 to i1
  %103 = select i1 %102, i32 32, i32 35
  %104 = load i8, ptr %12, align 1, !range !6, !noundef !7
  %105 = trunc i8 %104 to i1
  %106 = select i1 %105, i32 32, i32 35
  %107 = load i8, ptr %12, align 1, !range !6, !noundef !7
  %108 = trunc i8 %107 to i1
  br i1 %108, label %109, label %116

109:                                              ; preds = %81
  %110 = load ptr, ptr @progress_filename, align 8
  %111 = load ptr, ptr @progress_filename, align 8
  %112 = call i64 @strlen(ptr noundef %111) #13
  %113 = getelementptr inbounds nuw i8, ptr %110, i64 %112
  %114 = getelementptr inbounds i8, ptr %113, i64 -35
  %115 = getelementptr inbounds i8, ptr %114, i64 3
  br label %118

116:                                              ; preds = %81
  %117 = load ptr, ptr @progress_filename, align 8
  br label %118

118:                                              ; preds = %116, %109
  %119 = phi ptr [ %115, %109 ], [ %117, %116 ]
  %120 = call i32 (ptr, ptr, ...) @pg_fprintf(ptr noundef %86, ptr noundef %89, i32 noundef %92, ptr noundef %93, ptr noundef %94, i32 noundef %95, i32 noundef %96, i32 noundef %97, ptr noundef %100, i32 noundef %103, i32 noundef %106, ptr noundef %119)
  call void @llvm.lifetime.end.p0(i64 1, ptr %12) #12
  br label %121

121:                                              ; preds = %118, %68
  br label %136

122:                                              ; preds = %55
  %123 = load ptr, ptr @stderr, align 8
  %124 = load i32, ptr @tablespacecount, align 4
  %125 = icmp eq i32 %124, 1
  %126 = select i1 %125, ptr @.str.280, ptr @.str.281
  %127 = getelementptr inbounds [32 x i8], ptr %9, i64 0, i64 0
  %128 = call i64 @strlen(ptr noundef %127) #13
  %129 = trunc i64 %128 to i32
  %130 = getelementptr inbounds [32 x i8], ptr %8, i64 0, i64 0
  %131 = getelementptr inbounds [32 x i8], ptr %9, i64 0, i64 0
  %132 = load i32, ptr %7, align 4
  %133 = load i32, ptr %4, align 4
  %134 = load i32, ptr @tablespacecount, align 4
  %135 = call i32 (ptr, ptr, ...) @pg_fprintf(ptr noundef %123, ptr noundef %126, i32 noundef %129, ptr noundef %130, ptr noundef %131, i32 noundef %132, i32 noundef %133, i32 noundef %134)
  br label %136

136:                                              ; preds = %122, %121
  %137 = load i8, ptr %6, align 1, !range !6, !noundef !7
  %138 = trunc i8 %137 to i1
  br i1 %138, label %144, label %139

139:                                              ; preds = %136
  %140 = load ptr, ptr @stderr, align 8
  %141 = call i32 @fileno(ptr noundef %140) #12
  %142 = call i32 @isatty(i32 noundef %141) #12
  %143 = icmp ne i32 %142, 0
  br label %144

144:                                              ; preds = %139, %136
  %145 = phi i1 [ false, %136 ], [ %143, %139 ]
  %146 = select i1 %145, i32 13, i32 10
  %147 = load ptr, ptr @stderr, align 8
  %148 = call i32 @fputc(i32 noundef %146, ptr noundef %147)
  store i32 0, ptr %11, align 4
  br label %149

149:                                              ; preds = %144, %29, %17
  call void @llvm.lifetime.end.p0(i64 8, ptr %10) #12
  call void @llvm.lifetime.end.p0(i64 32, ptr %9) #12
  call void @llvm.lifetime.end.p0(i64 32, ptr %8) #12
  call void @llvm.lifetime.end.p0(i64 4, ptr %7) #12
  %150 = load i32, ptr %11, align 4
  switch i32 %150, label %152 [
    i32 0, label %151
    i32 1, label %151
  ]

151:                                              ; preds = %149, %149
  ret void

152:                                              ; preds = %149
  unreachable
}