; Function Attrs: nounwind uwtable
define internal fastcc void @progress_report(i32 noundef %0, i1 noundef zeroext %1, i1 noundef zeroext %2) unnamed_addr #0 {
  %4 = alloca [32 x i8], align 16
  %5 = alloca [32 x i8], align 16
  call void @llvm.lifetime.start.p0(i64 32, ptr nonnull %4) #17
  call void @llvm.lifetime.start.p0(i64 32, ptr nonnull %5) #17
  %.b18 = load i1, ptr @showprogress, align 1
  br i1 %.b18, label %6, label %67

6:                                                ; preds = %3
  %7 = tail call i64 @time(ptr noundef null) #17
  %8 = load i64, ptr @last_progress_report, align 8
  %9 = icmp ne i64 %7, %8
  %brmerge = or i1 %1, %9
  %brmerge23 = or i1 %2, %brmerge
  br i1 %brmerge23, label %10, label %67

10:                                               ; preds = %6
  store i64 %7, ptr @last_progress_report, align 8
  %11 = load i64, ptr @totalsize_kb, align 8
  %.not = icmp eq i64 %11, 0
  %.pre = load i64, ptr @totaldone, align 8
  %.pre24 = lshr i64 %.pre, 10
  br i1 %.not, label %._crit_edge, label %12

12:                                               ; preds = %10
  %13 = mul nuw nsw i64 %.pre24, 100
  %14 = udiv i64 %13, %11
  %15 = trunc i64 %14 to i32
  br label %._crit_edge

._crit_edge:                                      ; preds = %10, %12
  %16 = phi i32 [ %15, %12 ], [ 0, %10 ]
  %spec.store.select = tail call i32 @llvm.smin.i32(i32 %16, i32 100)
  %17 = icmp ugt i64 %.pre24, %11
  br i1 %17, label %18, label %19

18:                                               ; preds = %._crit_edge
  store i64 %.pre24, ptr @totalsize_kb, align 8
  br label %19

19:                                               ; preds = %18, %._crit_edge
  %20 = call i32 (ptr, i64, ptr, ...) @pg_snprintf(ptr noundef nonnull %4, i64 noundef 32, ptr noundef nonnull @.str.273, i64 noundef %.pre24) #17
  %21 = load i64, ptr @totalsize_kb, align 8
  %22 = call i32 (ptr, i64, ptr, ...) @pg_snprintf(ptr noundef nonnull %5, i64 noundef 32, ptr noundef nonnull @.str.273, i64 noundef %21) #17
  %23 = load i32, ptr @verbose, align 4
  %.not19 = icmp eq i32 %23, 0
  br i1 %.not19, label %49, label %24

24:                                               ; preds = %19
  %25 = load ptr, ptr @progress_filename, align 8
  %.not20 = icmp eq ptr %25, null
  br i1 %.not20, label %26, label %34

26:                                               ; preds = %24
  %27 = load ptr, ptr @stderr, align 8
  %28 = load i32, ptr @tablespacecount, align 4
  %29 = icmp eq i32 %28, 1
  %30 = select i1 %29, ptr @.str.274, ptr @.str.275
  %31 = call i64 @strlen(ptr noundef nonnull dereferenceable(1) %5) #18
  %32 = trunc i64 %31 to i32
  %33 = call i32 (ptr, ptr, ...) @pg_fprintf(ptr noundef %27, ptr noundef nonnull %30, i32 noundef %32, ptr noundef nonnull %4, ptr noundef nonnull %5, i32 noundef %0, i32 noundef %28, i32 noundef 40, ptr noundef nonnull @.str.276) #17
  br label %57

34:                                               ; preds = %24
  %35 = call i64 @strlen(ptr noundef nonnull dereferenceable(1) %25) #18
  %36 = icmp ugt i64 %35, 35
  %37 = load ptr, ptr @stderr, align 8
  %38 = load i32, ptr @tablespacecount, align 4
  %39 = icmp eq i32 %38, 1
  %40 = select i1 %39, ptr @.str.277, ptr @.str.278
  %41 = call i64 @strlen(ptr noundef nonnull dereferenceable(1) %5) #18
  %42 = trunc i64 %41 to i32
  %43 = select i1 %36, ptr @.str.279, ptr @.str.276
  %44 = select i1 %36, i32 32, i32 35
  %45 = getelementptr inbounds nuw i8, ptr %25, i64 %35
  %46 = getelementptr inbounds i8, ptr %45, i64 -32
  %47 = select i1 %36, ptr %46, ptr %25
  %48 = call i32 (ptr, ptr, ...) @pg_fprintf(ptr noundef %37, ptr noundef nonnull %40, i32 noundef %42, ptr noundef nonnull %4, ptr noundef nonnull %5, i32 noundef %spec.store.select, i32 noundef %0, i32 noundef %38, ptr noundef nonnull %43, i32 noundef %44, i32 noundef %44, ptr noundef nonnull %47) #17
  br label %57

49:                                               ; preds = %19
  %50 = load ptr, ptr @stderr, align 8
  %51 = load i32, ptr @tablespacecount, align 4
  %52 = icmp eq i32 %51, 1
  %53 = select i1 %52, ptr @.str.280, ptr @.str.281
  %54 = call i64 @strlen(ptr noundef nonnull dereferenceable(1) %5) #18
  %55 = trunc i64 %54 to i32
  %56 = call i32 (ptr, ptr, ...) @pg_fprintf(ptr noundef %50, ptr noundef nonnull %53, i32 noundef %55, ptr noundef nonnull %4, ptr noundef nonnull %5, i32 noundef %spec.store.select, i32 noundef %0, i32 noundef %51) #17
  br label %57

57:                                               ; preds = %26, %34, %49
  br i1 %2, label %63, label %58

58:                                               ; preds = %57
  %59 = load ptr, ptr @stderr, align 8
  %60 = call i32 @fileno(ptr noundef %59) #17
  %61 = call i32 @isatty(i32 noundef %60) #17
  %.not21 = icmp eq i32 %61, 0
  %62 = select i1 %.not21, i32 10, i32 13
  br label %63

63:                                               ; preds = %58, %57
  %64 = phi i32 [ 10, %57 ], [ %62, %58 ]
  %65 = load ptr, ptr @stderr, align 8
  %66 = call i32 @fputc(i32 noundef %64, ptr noundef %65)
  br label %67

67:                                               ; preds = %6, %3, %63
  call void @llvm.lifetime.end.p0(i64 32, ptr nonnull %5) #17
  call void @llvm.lifetime.end.p0(i64 32, ptr nonnull %4) #17
  ret void
}